; Function Attrs: mustprogress uwtable
define void @_ZN6icu_758numparse4impl16MinusSignMatcherC2ERKNS_20DecimalFormatSymbolsEb(ptr noundef nonnull align 8 dereferenceable(81) %this, ptr noundef nonnull align 8 dereferenceable(2883) %dfs, i1 noundef zeroext %allowTrailing) unnamed_addr #0 align 2 personality ptr @__gxx_personality_v0 {
entry:
  %arrayidx.i = getelementptr inbounds i8, ptr %dfs, i64 392
  store ptr getelementptr inbounds ({ [11 x ptr] }, ptr @_ZTVN6icu_758numparse4impl13SymbolMatcherE, i64 0, i32 0, i64 2), ptr %this, align 8
  %fString.i = getelementptr inbounds i8, ptr %this, i64 8
  store ptr getelementptr inbounds ({ [13 x ptr] }, ptr @_ZTVN6icu_7513UnicodeStringE, i64 0, i32 0, i64 2), ptr %fString.i, align 8
  %fUnion2.i.i = getelementptr inbounds i8, ptr %this, i64 16
  store i16 2, ptr %fUnion2.i.i, align 8
  %call.i = invoke noundef ptr @_ZN6icu_757unisets3getENS0_3KeyE(i32 noundef 11)
          to label %invoke.cont3.i unwind label %lpad2.i

invoke.cont3.i:                                   ; preds = %entry
  %fUniSet.i = getelementptr inbounds i8, ptr %this, i64 72
  store ptr %call.i, ptr %fUniSet.i, align 8
  %call6.i = invoke noundef signext i8 @_ZNK6icu_7510UnicodeSet8containsERKNS_13UnicodeStringE(ptr noundef nonnull align 8 dereferenceable(200) %call.i, ptr noundef nonnull align 8 dereferenceable(64) %arrayidx.i)
          to label %invoke.cont5.i unwind label %lpad2.i

invoke.cont5.i:                                   ; preds = %invoke.cont3.i
  %tobool.not.i = icmp eq i8 %call6.i, 0
  br i1 %tobool.not.i, label %if.else.i, label %if.then.i

if.then.i:                                        ; preds = %invoke.cont5.i
  invoke void @_ZN6icu_7513UnicodeString10setToBogusEv(ptr noundef nonnull align 8 dereferenceable(64) %fString.i)
          to label %_ZN6icu_758numparse4impl13SymbolMatcherC2ERKNS_13UnicodeStringENS_7unisets3KeyE.exit unwind label %lpad2.i

lpad2.i:                                          ; preds = %if.else.i, %if.then.i, %invoke.cont3.i, %entry
  %0 = landingpad { ptr, i32 }
          cleanup
  tail call void @_ZN6icu_7513UnicodeStringD1Ev(ptr noundef nonnull align 8 dereferenceable(64) %fString.i) #7
  tail call void @_ZN6icu_758numparse4impl18NumberParseMatcherD2Ev(ptr noundef nonnull align 8 dereferenceable(8) %this) #7
  resume { ptr, i32 } %0

if.else.i:                                        ; preds = %invoke.cont5.i
  %call11.i = invoke noundef nonnull align 8 dereferenceable(64) ptr @_ZN6icu_7513UnicodeStringaSERKS0_(ptr noundef nonnull align 8 dereferenceable(64) %fString.i, ptr noundef nonnull align 8 dereferenceable(64) %arrayidx.i)
          to label %_ZN6icu_758numparse4impl13SymbolMatcherC2ERKNS_13UnicodeStringENS_7unisets3KeyE.exit unwind label %lpad2.i

_ZN6icu_758numparse4impl13SymbolMatcherC2ERKNS_13UnicodeStringENS_7unisets3KeyE.exit: ; preds = %if.then.i, %if.else.i
  %frombool = zext i1 %allowTrailing to i8
  store ptr getelementptr inbounds ({ [11 x ptr] }, ptr @_ZTVN6icu_758numparse4impl16MinusSignMatcherE, i64 0, i32 0, i64 2), ptr %this, align 8
  %fAllowTrailing = getelementptr inbounds i8, ptr %this, i64 80
  store i8 %frombool, ptr %fAllowTrailing, align 8
  ret void
}